target datalayout = "e-m:e-p270:32:32-p271:32:32-p272:64:64-i64:64-i128:128-f80:128-n8:16:32:64-S128"
target triple = "x86_64-pc-linux-gnu"

; Function Attrs: inlinehint nounwind uwtable
define internal ptr @xstrdup_or_null(ptr noundef %0) #5 {
  %2 = alloca ptr, align 8
  store ptr %0, ptr %2, align 8, !tbaa !11
  %3 = load ptr, ptr %2, align 8, !tbaa !11
  %4 = icmp ne ptr %3, null
  br i1 %4, label %5, label %8

5:                                                ; preds = %1
  %6 = load ptr, ptr %2, align 8, !tbaa !11
  %7 = call ptr @xstrdup(ptr noundef %6)
  br label %9

8:                                                ; preds = %1
  br label %9

9:                                                ; preds = %8, %5
  %10 = phi ptr [ %7, %5 ], [ null, %8 ]
  ret ptr %10
}

; Function Attrs: nounwind uwtable
define internal ptr @git_attr_val_global(i32 noundef %0) #0 {
  %2 = alloca ptr, align 8
  %3 = alloca i32, align 4
  %4 = alloca ptr, align 8
  %5 = alloca i32, align 4
  store i32 %0, ptr %3, align 4, !tbaa !4
  call void @llvm.lifetime.start.p0(i64 8, ptr %4) #9
  %6 = call ptr @git_attr_global_file()
  %7 = call ptr @xstrdup_or_null(ptr noundef %6)
  store ptr %7, ptr %4, align 8, !tbaa !11
  %8 = load ptr, ptr %4, align 8, !tbaa !11
  %9 = icmp ne ptr %8, null
  br i1 %9, label %10, label %15

10:                                               ; preds = %1
  %11 = load ptr, ptr %4, align 8, !tbaa !11
  %12 = load ptr, ptr %4, align 8, !tbaa !11
  %13 = call i32 @normalize_path_copy(ptr noundef %11, ptr noundef %12)
  %14 = load ptr, ptr %4, align 8, !tbaa !11
  store ptr %14, ptr %2, align 8
  store i32 1, ptr %5, align 4
  br label %16

15:                                               ; preds = %1
  store ptr null, ptr %2, align 8
  store i32 1, ptr %5, align 4
  br label %16

16:                                               ; preds = %15, %10
  call void @llvm.lifetime.end.p0(i64 8, ptr %4) #9
  %17 = load ptr, ptr %2, align 8
  ret ptr %17
}