; Function Attrs: nounwind uwtable
define internal ptr @git_attr_val_global(i32 %0) #0 {
  %2 = tail call ptr @git_attr_global_file() #10
  %.not.i = icmp eq ptr %2, null
  br i1 %.not.i, label %xstrdup_or_null.exit.thread, label %xstrdup_or_null.exit

xstrdup_or_null.exit:                             ; preds = %1
  %3 = tail call ptr @xstrdup(ptr noundef nonnull %2) #10
  %.not = icmp eq ptr %3, null
  br i1 %.not, label %xstrdup_or_null.exit.thread, label %4

4:                                                ; preds = %xstrdup_or_null.exit
  %5 = tail call i32 @normalize_path_copy(ptr noundef nonnull %3, ptr noundef nonnull %3) #10
  br label %xstrdup_or_null.exit.thread

xstrdup_or_null.exit.thread:                      ; preds = %1, %xstrdup_or_null.exit, %4
  %.0 = phi ptr [ %3, %4 ], [ null, %xstrdup_or_null.exit ], [ null, %1 ]
  ret ptr %.0
}